target datalayout = "e-m:e-p270:32:32-p271:32:32-p272:64:64-i64:64-i128:128-f80:128-n8:16:32:64-S128"
target triple = "x86_64-unknown-linux-gnu"

%"struct.Imf_3_2::Channel" = type <{ i32, i32, i32, i8, [3 x i8] }>

; Function Attrs: mustprogress uwtable
define void @_ZN7Imf_3_25Image13insertChannelERKNSt7__cxx1112basic_stringIcSt11char_traitsIcESaIcEEERKNS_7ChannelE(ptr noundef nonnull align 8 dereferenceable(104) %this, ptr noundef nonnull align 8 dereferenceable(32) %name, ptr noundef nonnull align 4 dereferenceable(13) %channel) #4 align 2 {
entry:
  %this.addr = alloca ptr, align 8
  %name.addr = alloca ptr, align 8
  %channel.addr = alloca ptr, align 8
  store ptr %this, ptr %this.addr, align 8
  store ptr %name, ptr %name.addr, align 8
  store ptr %channel, ptr %channel.addr, align 8
  %this1 = load ptr, ptr %this.addr, align 8
  %0 = load ptr, ptr %name.addr, align 8
  %1 = load ptr, ptr %channel.addr, align 8
  %type = getelementptr inbounds %"struct.Imf_3_2::Channel", ptr %1, i32 0, i32 0
  %2 = load i32, ptr %type, align 4
  %3 = load ptr, ptr %channel.addr, align 8
  %xSampling = getelementptr inbounds %"struct.Imf_3_2::Channel", ptr %3, i32 0, i32 1
  %4 = load i32, ptr %xSampling, align 4
  %5 = load ptr, ptr %channel.addr, align 8
  %ySampling = getelementptr inbounds %"struct.Imf_3_2::Channel", ptr %5, i32 0, i32 2
  %6 = load i32, ptr %ySampling, align 4
  %7 = load ptr, ptr %channel.addr, align 8
  %pLinear = getelementptr inbounds %"struct.Imf_3_2::Channel", ptr %7, i32 0, i32 3
  %8 = load i8, ptr %pLinear, align 4
  %tobool = trunc i8 %8 to i1
  call void @_ZN7Imf_3_25Image13insertChannelERKNSt7__cxx1112basic_stringIcSt11char_traitsIcESaIcEEENS_9PixelTypeEiib(ptr noundef nonnull align 8 dereferenceable(104) %this1, ptr noundef nonnull align 8 dereferenceable(32) %0, i32 noundef %2, i32 noundef %4, i32 noundef %6, i1 noundef zeroext %tobool)
  ret void
}