; Function Attrs: mustprogress uwtable
define void @_ZN7Imf_3_25Image13insertChannelERKNSt7__cxx1112basic_stringIcSt11char_traitsIcESaIcEEERKNS_7ChannelE(ptr noundef nonnull align 8 dereferenceable(104) %this, ptr noundef nonnull align 8 dereferenceable(32) %name, ptr nocapture noundef nonnull readonly align 4 dereferenceable(13) %channel) local_unnamed_addr #6 align 2 {
entry:
  %0 = load i32, ptr %channel, align 4
  %xSampling = getelementptr inbounds i8, ptr %channel, i64 4
  %1 = load i32, ptr %xSampling, align 4
  %ySampling = getelementptr inbounds i8, ptr %channel, i64 8
  %2 = load i32, ptr %ySampling, align 4
  %pLinear = getelementptr inbounds i8, ptr %channel, i64 12
  %3 = load i8, ptr %pLinear, align 4
  %4 = and i8 %3, 1
  %tobool = icmp ne i8 %4, 0
  tail call void @_ZN7Imf_3_25Image13insertChannelERKNSt7__cxx1112basic_stringIcSt11char_traitsIcESaIcEEENS_9PixelTypeEiib(ptr noundef nonnull align 8 dereferenceable(104) %this, ptr noundef nonnull align 8 dereferenceable(32) %name, i32 noundef %0, i32 noundef %1, i32 noundef %2, i1 noundef zeroext %tobool)
  ret void
}